target datalayout = "e-m:e-p270:32:32-p271:32:32-p272:64:64-i64:64-i128:128-f80:128-n8:16:32:64-S128"
target triple = "x86_64-pc-linux-gnu"

%struct.Qureg = type { i32, i32, i32, i64, i64, i32, i32, %struct.ComplexArray, %struct.ComplexArray, %struct.ComplexArray, ptr, ptr, ptr, ptr, ptr, ptr }
%struct.ComplexArray = type { ptr, ptr }

@.str.4 = private unnamed_addr constant [9 x i8] c"QUBITS:\0A\00", align 1
@.str.5 = private unnamed_addr constant [25 x i8] c"Number of qubits is %d.\0A\00", align 1
@.str.6 = private unnamed_addr constant [25 x i8] c"Number of amps is %lld.\0A\00", align 1
@.str.7 = private unnamed_addr constant [34 x i8] c"Number of amps per rank is %lld.\0A\00", align 1

; Function Attrs: nounwind uwtable
define void @reportQuregParams(ptr noundef byval(%struct.Qureg) align 8 %0) #0 {
  %2 = alloca i64, align 8
  %3 = alloca i64, align 8
  call void @llvm.lifetime.start.p0(i64 8, ptr %2) #8
  %4 = getelementptr inbounds nuw %struct.Qureg, ptr %0, i32 0, i32 2
  %5 = load i32, ptr %4, align 8, !tbaa !50
  %6 = zext i32 %5 to i64
  %7 = shl i64 1, %6
  store i64 %7, ptr %2, align 8, !tbaa !11
  call void @llvm.lifetime.start.p0(i64 8, ptr %3) #8
  %8 = load i64, ptr %2, align 8, !tbaa !11
  %9 = getelementptr inbounds nuw %struct.Qureg, ptr %0, i32 0, i32 6
  %10 = load i32, ptr %9, align 4, !tbaa !51
  %11 = sext i32 %10 to i64
  %12 = sdiv i64 %8, %11
  store i64 %12, ptr %3, align 8, !tbaa !11
  %13 = getelementptr inbounds nuw %struct.Qureg, ptr %0, i32 0, i32 5
  %14 = load i32, ptr %13, align 8, !tbaa !42
  %15 = icmp eq i32 %14, 0
  br i1 %15, label %16, label %25

16:                                               ; preds = %1
  %17 = call i32 (ptr, ...) @printf(ptr noundef @.str.4)
  %18 = getelementptr inbounds nuw %struct.Qureg, ptr %0, i32 0, i32 2
  %19 = load i32, ptr %18, align 8, !tbaa !50
  %20 = call i32 (ptr, ...) @printf(ptr noundef @.str.5, i32 noundef %19)
  %21 = load i64, ptr %2, align 8, !tbaa !11
  %22 = call i32 (ptr, ...) @printf(ptr noundef @.str.6, i64 noundef %21)
  %23 = load i64, ptr %3, align 8, !tbaa !11
  %24 = call i32 (ptr, ...) @printf(ptr noundef @.str.7, i64 noundef %23)
  br label %25

25:                                               ; preds = %16, %1
  call void @llvm.lifetime.end.p0(i64 8, ptr %3) #8
  call void @llvm.lifetime.end.p0(i64 8, ptr %2) #8
  ret void
}