; Function Attrs: nofree nounwind uwtable
define void @reportQuregParams(ptr noundef readonly byval(%struct.Qureg) align 8 captures(none) %0) local_unnamed_addr #15 {
  %2 = getelementptr inbounds nuw i8, ptr %0, i64 32
  %3 = load i32, ptr %2, align 8, !tbaa !30
  %4 = icmp eq i32 %3, 0
  br i1 %4, label %5, label %17

5:                                                ; preds = %1
  %6 = getelementptr inbounds nuw i8, ptr %0, i64 8
  %7 = load i32, ptr %6, align 8, !tbaa !37
  %8 = zext nneg i32 %7 to i64
  %9 = shl nuw i64 1, %8
  %10 = getelementptr inbounds nuw i8, ptr %0, i64 36
  %11 = load i32, ptr %10, align 4, !tbaa !38
  %12 = sext i32 %11 to i64
  %13 = sdiv i64 %9, %12
  %puts = tail call i32 @puts(ptr nonnull dereferenceable(1) @str)
  %14 = tail call i32 (ptr, ...) @printf(ptr noundef nonnull dereferenceable(1) @.str.5, i32 noundef %7)
  %15 = tail call i32 (ptr, ...) @printf(ptr noundef nonnull dereferenceable(1) @.str.6, i64 noundef %9)
  %16 = tail call i32 (ptr, ...) @printf(ptr noundef nonnull dereferenceable(1) @.str.7, i64 noundef %13)
  br label %17

17:                                               ; preds = %5, %1
  ret void
}